target datalayout = "e-m:e-p270:32:32-p271:32:32-p272:64:64-i64:64-i128:128-f80:128-n8:16:32:64-S128"
target triple = "x86_64-pc-linux-gnu"

; Function Attrs: alwaysinline nounwind willreturn memory(none) uwtable
define internal i32 @av_clip_c(i32 noundef %0, i32 noundef %1, i32 noundef %2) #7 {
  %4 = alloca i32, align 4
  %5 = alloca i32, align 4
  %6 = alloca i32, align 4
  %7 = alloca i32, align 4
  store i32 %0, ptr %5, align 4, !tbaa !39
  store i32 %1, ptr %6, align 4, !tbaa !39
  store i32 %2, ptr %7, align 4, !tbaa !39
  %8 = load i32, ptr %5, align 4, !tbaa !39
  %9 = load i32, ptr %6, align 4, !tbaa !39
  %10 = icmp slt i32 %8, %9
  br i1 %10, label %11, label %13

11:                                               ; preds = %3
  %12 = load i32, ptr %6, align 4, !tbaa !39
  store i32 %12, ptr %4, align 4
  br label %21

13:                                               ; preds = %3
  %14 = load i32, ptr %5, align 4, !tbaa !39
  %15 = load i32, ptr %7, align 4, !tbaa !39
  %16 = icmp sgt i32 %14, %15
  br i1 %16, label %17, label %19

17:                                               ; preds = %13
  %18 = load i32, ptr %7, align 4, !tbaa !39
  store i32 %18, ptr %4, align 4
  br label %21

19:                                               ; preds = %13
  %20 = load i32, ptr %5, align 4, !tbaa !39
  store i32 %20, ptr %4, align 4
  br label %21

21:                                               ; preds = %19, %17, %11
  %22 = load i32, ptr %4, align 4
  ret i32 %22
}

; Function Attrs: nounwind uwtable
define internal void @draw_arrow(ptr noundef %0, i32 noundef %1, i32 noundef %2, i32 noundef %3, i32 noundef %4, i32 noundef %5, i32 noundef %6, i64 noundef %7, i32 noundef %8, i32 noundef %9, i32 noundef %10) #0 {
  %12 = alloca ptr, align 8
  %13 = alloca i32, align 4
  %14 = alloca i32, align 4
  %15 = alloca i32, align 4
  %16 = alloca i32, align 4
  %17 = alloca i32, align 4
  %18 = alloca i32, align 4
  %19 = alloca i64, align 8
  %20 = alloca i32, align 4
  %21 = alloca i32, align 4
  %22 = alloca i32, align 4
  %23 = alloca i32, align 4
  %24 = alloca i32, align 4
  %25 = alloca i32, align 4
  %26 = alloca i32, align 4
  %27 = alloca i32, align 4
  %28 = alloca i32, align 4
  %29 = alloca i32, align 4
  store ptr %0, ptr %12, align 8, !tbaa !40
  store i32 %1, ptr %13, align 4, !tbaa !39
  store i32 %2, ptr %14, align 4, !tbaa !39
  store i32 %3, ptr %15, align 4, !tbaa !39
  store i32 %4, ptr %16, align 4, !tbaa !39
  store i32 %5, ptr %17, align 4, !tbaa !39
  store i32 %6, ptr %18, align 4, !tbaa !39
  store i64 %7, ptr %19, align 8, !tbaa !50
  store i32 %8, ptr %20, align 4, !tbaa !39
  store i32 %9, ptr %21, align 4, !tbaa !39
  store i32 %10, ptr %22, align 4, !tbaa !39
  call void @llvm.lifetime.start.p0(i64 4, ptr %23) #9
  call void @llvm.lifetime.start.p0(i64 4, ptr %24) #9
  %30 = load i32, ptr %22, align 4, !tbaa !39
  %31 = icmp ne i32 %30, 0
  br i1 %31, label %32, label %45

32:                                               ; preds = %11
  br label %33

33:                                               ; preds = %32
  call void @llvm.lifetime.start.p0(i64 4, ptr %25) #9
  %34 = load i32, ptr %15, align 4, !tbaa !39
  store i32 %34, ptr %25, align 4, !tbaa !39
  %35 = load i32, ptr %13, align 4, !tbaa !39
  store i32 %35, ptr %15, align 4, !tbaa !39
  %36 = load i32, ptr %25, align 4, !tbaa !39
  store i32 %36, ptr %13, align 4, !tbaa !39
  call void @llvm.lifetime.end.p0(i64 4, ptr %25) #9
  br label %37

37:                                               ; preds = %33
  br label %38

38:                                               ; preds = %37
  br label %39

39:                                               ; preds = %38
  call void @llvm.lifetime.start.p0(i64 4, ptr %26) #9
  %40 = load i32, ptr %16, align 4, !tbaa !39
  store i32 %40, ptr %26, align 4, !tbaa !39
  %41 = load i32, ptr %14, align 4, !tbaa !39
  store i32 %41, ptr %16, align 4, !tbaa !39
  %42 = load i32, ptr %26, align 4, !tbaa !39
  store i32 %42, ptr %14, align 4, !tbaa !39
  call void @llvm.lifetime.end.p0(i64 4, ptr %26) #9
  br label %43

43:                                               ; preds = %39
  br label %44

44:                                               ; preds = %43
  br label %45

45:                                               ; preds = %44, %11
  %46 = load i32, ptr %13, align 4, !tbaa !39
  %47 = load i32, ptr %17, align 4, !tbaa !39
  %48 = add nsw i32 %47, 100
  %49 = call i32 @av_clip_c(i32 noundef %46, i32 noundef -100, i32 noundef %48) #11
  store i32 %49, ptr %13, align 4, !tbaa !39
  %50 = load i32, ptr %14, align 4, !tbaa !39
  %51 = load i32, ptr %18, align 4, !tbaa !39
  %52 = add nsw i32 %51, 100
  %53 = call i32 @av_clip_c(i32 noundef %50, i32 noundef -100, i32 noundef %52) #11
  store i32 %53, ptr %14, align 4, !tbaa !39
  %54 = load i32, ptr %15, align 4, !tbaa !39
  %55 = load i32, ptr %17, align 4, !tbaa !39
  %56 = add nsw i32 %55, 100
  %57 = call i32 @av_clip_c(i32 noundef %54, i32 noundef -100, i32 noundef %56) #11
  store i32 %57, ptr %15, align 4, !tbaa !39
  %58 = load i32, ptr %16, align 4, !tbaa !39
  %59 = load i32, ptr %18, align 4, !tbaa !39
  %60 = add nsw i32 %59, 100
  %61 = call i32 @av_clip_c(i32 noundef %58, i32 noundef -100, i32 noundef %60) #11
  store i32 %61, ptr %16, align 4, !tbaa !39
  %62 = load i32, ptr %15, align 4, !tbaa !39
  %63 = load i32, ptr %13, align 4, !tbaa !39
  %64 = sub nsw i32 %62, %63
  store i32 %64, ptr %23, align 4, !tbaa !39
  %65 = load i32, ptr %16, align 4, !tbaa !39
  %66 = load i32, ptr %14, align 4, !tbaa !39
  %67 = sub nsw i32 %65, %66
  store i32 %67, ptr %24, align 4, !tbaa !39
  %68 = load i32, ptr %23, align 4, !tbaa !39
  %69 = load i32, ptr %23, align 4, !tbaa !39
  %70 = mul nsw i32 %68, %69
  %71 = load i32, ptr %24, align 4, !tbaa !39
  %72 = load i32, ptr %24, align 4, !tbaa !39
  %73 = mul nsw i32 %71, %72
  %74 = add nsw i32 %70, %73
  %75 = icmp sgt i32 %74, 9
  br i1 %75, label %76, label %167

76:                                               ; preds = %45
  call void @llvm.lifetime.start.p0(i64 4, ptr %27) #9
  %77 = load i32, ptr %23, align 4, !tbaa !39
  %78 = load i32, ptr %24, align 4, !tbaa !39
  %79 = add nsw i32 %77, %78
  store i32 %79, ptr %27, align 4, !tbaa !39
  call void @llvm.lifetime.start.p0(i64 4, ptr %28) #9
  %80 = load i32, ptr %23, align 4, !tbaa !39
  %81 = sub nsw i32 0, %80
  %82 = load i32, ptr %24, align 4, !tbaa !39
  %83 = add nsw i32 %81, %82
  store i32 %83, ptr %28, align 4, !tbaa !39
  call void @llvm.lifetime.start.p0(i64 4, ptr %29) #9
  %84 = load i32, ptr %27, align 4, !tbaa !39
  %85 = load i32, ptr %27, align 4, !tbaa !39
  %86 = mul nsw i32 %84, %85
  %87 = load i32, ptr %28, align 4, !tbaa !39
  %88 = load i32, ptr %28, align 4, !tbaa !39
  %89 = mul nsw i32 %87, %88
  %90 = add nsw i32 %86, %89
  %91 = shl i32 %90, 8
  %92 = sitofp i32 %91 to double
  %93 = call nsz double @llvm.sqrt.f64(double %92)
  %94 = fptosi double %93 to i32
  store i32 %94, ptr %29, align 4, !tbaa !39
  %95 = load i32, ptr %27, align 4, !tbaa !39
  %96 = mul nsw i32 %95, 48
  %97 = icmp sge i32 %96, 0
  br i1 %97, label %98, label %104

98:                                               ; preds = %76
  %99 = load i32, ptr %27, align 4, !tbaa !39
  %100 = mul nsw i32 %99, 48
  %101 = load i32, ptr %29, align 4, !tbaa !39
  %102 = ashr i32 %101, 1
  %103 = add nsw i32 %100, %102
  br label %110

104:                                              ; preds = %76
  %105 = load i32, ptr %27, align 4, !tbaa !39
  %106 = mul nsw i32 %105, 48
  %107 = load i32, ptr %29, align 4, !tbaa !39
  %108 = ashr i32 %107, 1
  %109 = sub nsw i32 %106, %108
  br label %110

110:                                              ; preds = %104, %98
  %111 = phi i32 [ %103, %98 ], [ %109, %104 ]
  %112 = load i32, ptr %29, align 4, !tbaa !39
  %113 = sdiv i32 %111, %112
  store i32 %113, ptr %27, align 4, !tbaa !39
  %114 = load i32, ptr %28, align 4, !tbaa !39
  %115 = mul nsw i32 %114, 48
  %116 = icmp sge i32 %115, 0
  br i1 %116, label %117, label %123

117:                                              ; preds = %110
  %118 = load i32, ptr %28, align 4, !tbaa !39
  %119 = mul nsw i32 %118, 48
  %120 = load i32, ptr %29, align 4, !tbaa !39
  %121 = ashr i32 %120, 1
  %122 = add nsw i32 %119, %121
  br label %129

123:                                              ; preds = %110
  %124 = load i32, ptr %28, align 4, !tbaa !39
  %125 = mul nsw i32 %124, 48
  %126 = load i32, ptr %29, align 4, !tbaa !39
  %127 = ashr i32 %126, 1
  %128 = sub nsw i32 %125, %127
  br label %129

129:                                              ; preds = %123, %117
  %130 = phi i32 [ %122, %117 ], [ %128, %123 ]
  %131 = load i32, ptr %29, align 4, !tbaa !39
  %132 = sdiv i32 %130, %131
  store i32 %132, ptr %28, align 4, !tbaa !39
  %133 = load i32, ptr %21, align 4, !tbaa !39
  %134 = icmp ne i32 %133, 0
  br i1 %134, label %135, label %140

135:                                              ; preds = %129
  %136 = load i32, ptr %27, align 4, !tbaa !39
  %137 = sub nsw i32 0, %136
  store i32 %137, ptr %27, align 4, !tbaa !39
  %138 = load i32, ptr %28, align 4, !tbaa !39
  %139 = sub nsw i32 0, %138
  store i32 %139, ptr %28, align 4, !tbaa !39
  br label %140

140:                                              ; preds = %135, %129
  %141 = load ptr, ptr %12, align 8, !tbaa !40
  %142 = load i32, ptr %13, align 4, !tbaa !39
  %143 = load i32, ptr %14, align 4, !tbaa !39
  %144 = load i32, ptr %13, align 4, !tbaa !39
  %145 = load i32, ptr %27, align 4, !tbaa !39
  %146 = add nsw i32 %144, %145
  %147 = load i32, ptr %14, align 4, !tbaa !39
  %148 = load i32, ptr %28, align 4, !tbaa !39
  %149 = add nsw i32 %147, %148
  %150 = load i32, ptr %17, align 4, !tbaa !39
  %151 = load i32, ptr %18, align 4, !tbaa !39
  %152 = load i64, ptr %19, align 8, !tbaa !50
  %153 = load i32, ptr %20, align 4, !tbaa !39
  call void @draw_line(ptr noundef %141, i32 noundef %142, i32 noundef %143, i32 noundef %146, i32 noundef %149, i32 noundef %150, i32 noundef %151, i64 noundef %152, i32 noundef %153)
  %154 = load ptr, ptr %12, align 8, !tbaa !40
  %155 = load i32, ptr %13, align 4, !tbaa !39
  %156 = load i32, ptr %14, align 4, !tbaa !39
  %157 = load i32, ptr %13, align 4, !tbaa !39
  %158 = load i32, ptr %28, align 4, !tbaa !39
  %159 = sub nsw i32 %157, %158
  %160 = load i32, ptr %14, align 4, !tbaa !39
  %161 = load i32, ptr %27, align 4, !tbaa !39
  %162 = add nsw i32 %160, %161
  %163 = load i32, ptr %17, align 4, !tbaa !39
  %164 = load i32, ptr %18, align 4, !tbaa !39
  %165 = load i64, ptr %19, align 8, !tbaa !50
  %166 = load i32, ptr %20, align 4, !tbaa !39
  call void @draw_line(ptr noundef %154, i32 noundef %155, i32 noundef %156, i32 noundef %159, i32 noundef %162, i32 noundef %163, i32 noundef %164, i64 noundef %165, i32 noundef %166)
  call void @llvm.lifetime.end.p0(i64 4, ptr %29) #9
  call void @llvm.lifetime.end.p0(i64 4, ptr %28) #9
  call void @llvm.lifetime.end.p0(i64 4, ptr %27) #9
  br label %167

167:                                              ; preds = %140, %45
  %168 = load ptr, ptr %12, align 8, !tbaa !40
  %169 = load i32, ptr %13, align 4, !tbaa !39
  %170 = load i32, ptr %14, align 4, !tbaa !39
  %171 = load i32, ptr %15, align 4, !tbaa !39
  %172 = load i32, ptr %16, align 4, !tbaa !39
  %173 = load i32, ptr %17, align 4, !tbaa !39
  %174 = load i32, ptr %18, align 4, !tbaa !39
  %175 = load i64, ptr %19, align 8, !tbaa !50
  %176 = load i32, ptr %20, align 4, !tbaa !39
  call void @draw_line(ptr noundef %168, i32 noundef %169, i32 noundef %170, i32 noundef %171, i32 noundef %172, i32 noundef %173, i32 noundef %174, i64 noundef %175, i32 noundef %176)
  call void @llvm.lifetime.end.p0(i64 4, ptr %24) #9
  call void @llvm.lifetime.end.p0(i64 4, ptr %23) #9
  ret void
}