; Function Attrs: nofree norecurse nosync nounwind memory(argmem: readwrite) uwtable
define internal fastcc void @draw_arrow(ptr noundef captures(none) %0, i32 noundef range(i32 -32768, 32768) %1, i32 noundef range(i32 -32768, 32768) %2, i32 noundef range(i32 -32768, 32768) %3, i32 noundef range(i32 -32768, 32768) %4, i32 noundef %5, i32 noundef %6, i64 noundef range(i64 -2147483648, 2147483648) %7, i32 noundef range(i32 0, 2) %8) unnamed_addr #3 {
  %.not = icmp eq i32 %8, 0
  br i1 %.not, label %11, label %10

10:                                               ; preds = %9
  br label %11

11:                                               ; preds = %10, %9
  %.080 = phi i32 [ %2, %10 ], [ %4, %9 ]
  %.079 = phi i32 [ %1, %10 ], [ %3, %9 ]
  %.078 = phi i32 [ %4, %10 ], [ %2, %9 ]
  %.0 = phi i32 [ %3, %10 ], [ %1, %9 ]
  %12 = add nsw i32 %5, 100
  %13 = icmp slt i32 %.0, -100
  %..i = tail call i32 @llvm.smin.i32(i32 %.0, i32 %12)
  %.0.i = select i1 %13, i32 -100, i32 %..i
  %14 = add nsw i32 %6, 100
  %15 = icmp slt i32 %.078, -100
  %..i84 = tail call i32 @llvm.smin.i32(i32 %.078, i32 %14)
  %.0.i85 = select i1 %15, i32 -100, i32 %..i84
  %16 = icmp slt i32 %.079, -100
  %..i86 = tail call i32 @llvm.smin.i32(i32 %.079, i32 %12)
  %.0.i87 = select i1 %16, i32 -100, i32 %..i86
  %17 = icmp slt i32 %.080, -100
  %..i88 = tail call i32 @llvm.smin.i32(i32 %.080, i32 %14)
  %.0.i89 = select i1 %17, i32 -100, i32 %..i88
  %18 = sub nsw i32 %.0.i87, %.0.i
  %19 = sub nsw i32 %.0.i89, %.0.i85
  %20 = mul nsw i32 %18, %18
  %21 = mul nsw i32 %19, %19
  %22 = add nuw nsw i32 %20, %21
  %23 = icmp samesign ugt i32 %22, 9
  br i1 %23, label %24, label %48

24:                                               ; preds = %11
  %25 = add nsw i32 %18, %19
  %26 = sub nsw i32 %19, %18
  %27 = mul nsw i32 %25, %25
  %28 = mul nsw i32 %26, %26
  %29 = add nuw nsw i32 %27, %28
  %30 = shl i32 %29, 8
  %31 = sitofp i32 %30 to double
  %32 = tail call nsz double @llvm.sqrt.f64(double %31)
  %33 = fptosi double %32 to i32
  %34 = mul nsw i32 %25, 48
  %35 = ashr i32 %33, 1
  %36 = icmp slt i32 %25, 0
  %37 = sub nsw i32 0, %35
  %.p = select i1 %36, i32 %37, i32 %35
  %38 = add i32 %.p, %34
  %39 = sdiv i32 %38, %33
  %40 = mul nsw i32 %26, 48
  %41 = icmp slt i32 %26, 0
  %.p90 = select i1 %41, i32 %37, i32 %35
  %42 = add i32 %.p90, %40
  %43 = sdiv i32 %42, %33
  %44 = add nsw i32 %39, %.0.i
  %45 = add nsw i32 %43, %.0.i85
  tail call fastcc void @draw_line(ptr noundef %0, i32 noundef %.0.i, i32 noundef %.0.i85, i32 noundef %44, i32 noundef %45, i32 noundef %5, i32 noundef %6, i64 noundef %7)
  %46 = sub nsw i32 %.0.i, %43
  %47 = add nsw i32 %39, %.0.i85
  tail call fastcc void @draw_line(ptr noundef %0, i32 noundef %.0.i, i32 noundef %.0.i85, i32 noundef %46, i32 noundef %47, i32 noundef %5, i32 noundef %6, i64 noundef %7)
  br label %48

48:                                               ; preds = %24, %11
  tail call fastcc void @draw_line(ptr noundef %0, i32 noundef %.0.i, i32 noundef %.0.i85, i32 noundef %.0.i87, i32 noundef %.0.i89, i32 noundef %5, i32 noundef %6, i64 noundef %7)
  ret void
}